; Function Attrs: mustprogress uwtable
define void @dfilter_recent_combo_write_all(ptr nocapture noundef %0) local_unnamed_addr #0 {
  %2 = load ptr, ptr @_ZL24cur_display_filter_combo, align 8
  %.not = icmp eq ptr %2, null
  br i1 %.not, label %4, label %3

3:                                                ; preds = %1
  tail call void @_ZN18DisplayFilterCombo11writeRecentEP8_IO_FILE(ptr noundef nonnull align 8 dereferenceable(40) %2, ptr noundef %0)
  br label %4

4:                                                ; preds = %1, %3
  ret void
}